Certificate:
    Data:
        Version: 3 (0x2)
        Serial Number: 1 (0x1)
    Signature Algorithm: sha1WithRSAEncryption
        Issuer: C=KR, CN=sonysame
        Validity
            Not Before: Mar  1 00:00:00 2014 GMT
            Not After : Feb 27 00:00:00 2024 GMT
        Subject: C=KR, CN=default
        Subject Public Key Info:
            Public Key Algorithm: rsaEncryption
                Public-Key: (1024 bit)
                Modulus:
                    00:b6:7b:e7:83:40:32:b6:b0:45:87:44:43:11:20:
                    1d:30:39:b6:6f:30:27:ac:58:9e:c5:a9:86:d8:cf:
                    fd:0a:54:ff:3b:ca:75:3d:6a:5b:ab:71:9a:89:93:
                    ab:11:f8:15:d2:6b:09:04:39:86:f0:9b:fe:75:8a:
                    58:89:2e:13:57:4d:0e:14:87:3b:ed:d6:0b:82:87:
                    e4:92:a4:c7:5f:1f:18:65:d4:06:97:15:1e:76:d6:
                    91:12:83:ee:79:f5:1c:5c:21:f4:87:9f:c2:24:40:
                    62:19:07:af:ce:20:f7:a2:60:91:74:ed:23:48:83:
                    56:1b:0d:07:3a:65:ab:56:43
                Exponent: 65537 (0x10001)
        X509v3 extensions:
            X509v3 Basic Constraints: 
                CA:FALSE
            Netscape Comment: 
                OpenSSL Generated Certificate
            X509v3 Subject Key Identifier: 
                26:86:6F:8F:F5:4F:6F:D7:F0:D9:B5:2C:D7:43:A9:2C:50:22:E2:8A
            X509v3 Authority Key Identifier: 
                DirName:/C=KR/CN=sonysame
                serial:E5:67:96:58:5C:86:5B:0E

    Signature Algorithm: sha1WithRSAEncryption
         06:6a:e3:7e:a2:4f:96:b7:10:12:3b:6c:67:1f:d4:d5:cf:18:
         3f:34:7f:df:46:4f:62:6c:a8:06:1a:33:87:82:c3:94:a7:b8:
         12:99:5a:76:a3:d8:71:4b:80:3d:8c:e5:c9:6c:af:db:3b:03:
         7e:b4:5a:18:16:ed:db:5b:10:55:7d:52:2a:41:02:35:c0:9c:
         85:5a:9c:cd:96:2a:57:10:2c:0c:c9:0d:52:a6:47:f0:92:33:
         1f:e3:63:a6:aa:f1:da:ea:fd:90:ba:51:9a:71:4e:e4:a0:be:
         a8:29:b3:31:54:2c:fb:02:c5:09:50:bf:a0:91:50:90:0b:9e:
         56:ee
-----BEGIN CERTIFICATE-----
MIICUTCCAbqgAwIBAgIBATANBgkqhkiG9w0BAQUFADAgMQswCQYDVQQGEwJLUjER
MA8GA1UEAwwIc29ueXNhbWUwIhgPMjAxNDAzMDEwMDAwMDBaGA8yMDI0MDIyNzAw
MDAwMFowHzELMAkGA1UEBhMCS1IxEDAOBgNVBAMMB2RlZmF1bHQwgZ8wDQYJKoZI
hvcNAQEBBQADgY0AMIGJAoGBALZ754NAMrawRYdEQxEgHTA5tm8wJ6xYnsWphtjP
/QpU/zvKdT1qW6txmomTqxH4FdJrCQQ5hvCb/nWKWIkuE1dNDhSHO+3WC4KH5JKk
x18fGGXUBpcVHnbWkRKD7nn1HFwh9IefwiRAYhkHr84g96JgkXTtI0iDVhsNBzpl
q1ZDAgMBAAGjgZcwgZQwCQYDVR0TBAIwADAsBglghkgBhvhCAQ0EHxYdT3BlblNT
TCBHZW5lcmF0ZWQgQ2VydGlmaWNhdGUwHQYDVR0OBBYEFCaGb4/1T2/X8Nm1LNdD
qSxQIuKKMDoGA1UdIwQzMDGhJKQiMCAxCzAJBgNVBAYTAktSMREwDwYDVQQDDAhz
b255c2FtZYIJAOVnllhchlsOMA0GCSqGSIb3DQEBBQUAA4GBAAZq436iT5a3EBI7
bGcf1NXPGD80f99GT2JsqAYaM4eCw5SnuBKZWnaj2HFLgD2M5clsr9s7A360WhgW
7dtbEFV9UipBAjXAnIVanM2WKlcQLAzJDVKmR/CSMx/jY6aq8drq/ZC6UZpxTuSg
vqgpszFULPsCxQlQv6CRUJALnlbu
-----END CERTIFICATE-----
