Certificate:
    Data:
        Version: 3 (0x2)
        Serial Number: 2 (0x2)
    Signature Algorithm: sha1WithRSAEncryption
        Issuer: C=KR, CN=sonysame
        Validity
            Not Before: Mar  1 00:00:00 2014 GMT
            Not After : Feb 27 00:00:00 2024 GMT
        Subject: C=KR, CN=test.com
        Subject Public Key Info:
            Public Key Algorithm: rsaEncryption
                Public-Key: (1024 bit)
                Modulus:
                    00:ae:09:9a:07:ba:e1:ca:81:19:cc:13:bb:7d:d6:
                    32:8a:28:68:f5:7c:9c:b4:a0:8f:d5:2f:da:32:b8:
                    94:ad:13:26:08:24:e8:c5:64:62:92:f3:70:67:42:
                    7b:cf:83:8c:ba:c9:ca:e8:9a:1d:2d:10:a2:d7:d7:
                    9e:f1:15:d0:20:62:38:72:ac:0e:a2:90:ef:e0:43:
                    a5:f9:ce:28:96:db:f6:9a:d0:83:c9:5f:81:89:9b:
                    69:6c:9d:fd:c7:c5:fd:bc:a4:17:a7:4d:51:09:e5:
                    fb:68:00:83:2a:c7:98:32:1a:9a:78:91:31:47:ee:
                    6f:da:3d:2c:48:58:30:91:4b
                Exponent: 65537 (0x10001)
        X509v3 extensions:
            X509v3 Basic Constraints: 
                CA:FALSE
            Netscape Comment: 
                OpenSSL Generated Certificate
            X509v3 Subject Key Identifier: 
                20:47:3D:2E:28:6C:FA:94:A7:BB:6C:6D:A6:FD:88:F0:D8:DA:6D:EB
            X509v3 Authority Key Identifier: 
                DirName:/C=KR/CN=sonysame
                serial:E5:67:96:58:5C:86:5B:0E

    Signature Algorithm: sha1WithRSAEncryption
         28:77:63:51:c5:7c:e8:7f:de:56:99:ae:61:d5:1e:d2:55:9c:
         2e:5a:5d:48:97:02:5d:f3:2c:f1:f6:5c:2b:ce:ce:bf:52:00:
         bf:be:1e:2d:08:f3:e7:2e:6a:91:30:ef:c1:ec:e6:39:d0:86:
         98:5d:dd:1e:3f:8a:20:0e:49:2b:e7:85:c1:cb:95:fb:53:b4:
         4f:b1:9d:8b:87:9c:cd:5a:ce:13:19:39:b0:da:57:bd:d0:76:
         57:75:d8:a4:3a:6f:58:6d:a4:5a:b4:c2:ec:cf:64:ad:f5:a6:
         9c:1c:c9:5d:bc:c1:b8:fb:ad:8e:75:9a:9d:de:15:d5:79:c3:
         85:f1
-----BEGIN CERTIFICATE-----
MIICUjCCAbugAwIBAgIBAjANBgkqhkiG9w0BAQUFADAgMQswCQYDVQQGEwJLUjER
MA8GA1UEAwwIc29ueXNhbWUwIhgPMjAxNDAzMDEwMDAwMDBaGA8yMDI0MDIyNzAw
MDAwMFowIDELMAkGA1UEBhMCS1IxETAPBgNVBAMMCHRlc3QuY29tMIGfMA0GCSqG
SIb3DQEBAQUAA4GNADCBiQKBgQCuCZoHuuHKgRnME7t91jKKKGj1fJy0oI/VL9oy
uJStEyYIJOjFZGKS83BnQnvPg4y6ycromh0tEKLX157xFdAgYjhyrA6ikO/gQ6X5
ziiW2/aa0IPJX4GJm2lsnf3Hxf28pBenTVEJ5ftoAIMqx5gyGpp4kTFH7m/aPSxI
WDCRSwIDAQABo4GXMIGUMAkGA1UdEwQCMAAwLAYJYIZIAYb4QgENBB8WHU9wZW5T
U0wgR2VuZXJhdGVkIENlcnRpZmljYXRlMB0GA1UdDgQWBBQgRz0uKGz6lKe7bG2m
/Yjw2Npt6zA6BgNVHSMEMzAxoSSkIjAgMQswCQYDVQQGEwJLUjERMA8GA1UEAwwI
c29ueXNhbWWCCQDlZ5ZYXIZbDjANBgkqhkiG9w0BAQUFAAOBgQAod2NRxXzof95W
ma5h1R7SVZwuWl1IlwJd8yzx9lwrzs6/UgC/vh4tCPPnLmqRMO/B7OY50IaYXd0e
P4ogDkkr54XBy5X7U7RPsZ2Lh5zNWs4TGTmw2le90HZXddikOm9YbaRatMLsz2St
9aacHMldvMG4+62OdZqd3hXVecOF8Q==
-----END CERTIFICATE-----
